target datalayout = "e-m:e-p270:32:32-p271:32:32-p272:64:64-i64:64-i128:128-f80:128-n8:16:32:64-S128"
target triple = "x86_64-pc-linux-gnu"

%struct.RClass = type { %struct.RBasic, i64, ptr }
%struct.RBasic = type { i64, i64 }

@rb_eTypeError = external global i64, align 8
@rb_cBasicObject = dso_local global i64 0, align 8
@rb_cObject = dso_local global i64 0, align 8
@.str.175 = private unnamed_addr constant [26 x i8] c"already initialized class\00", align 1
@.str.176 = private unnamed_addr constant [34 x i8] c"can't inherit uninitialized class\00", align 1
@.str.177 = private unnamed_addr constant [20 x i8] c"../internal/class.h\00", align 1

; Function Attrs: inlinehint nounwind sspstrong willreturn memory(none) uwtable
define internal zeroext i1 @RB_IMMEDIATE_P(i64 noundef %0) #1 {
  %2 = alloca i64, align 8
  store i64 %0, ptr %2, align 8, !tbaa !11
  %3 = load i64, ptr %2, align 8, !tbaa !11
  %4 = and i64 %3, 7
  %5 = icmp ne i64 %4, 0
  ret i1 %5
}

; Function Attrs: inlinehint nounwind sspstrong willreturn memory(none) uwtable
define internal zeroext i1 @RB_SPECIAL_CONST_P(i64 noundef %0) #1 {
  %2 = alloca i64, align 8
  store i64 %0, ptr %2, align 8, !tbaa !11
  %3 = load i64, ptr %2, align 8, !tbaa !11
  %4 = icmp eq i64 %3, 0
  br i1 %4, label %8, label %5

5:                                                ; preds = %1
  %6 = load i64, ptr %2, align 8, !tbaa !11
  %7 = call zeroext i1 @RB_IMMEDIATE_P(i64 noundef %6) #27
  br label %8

8:                                                ; preds = %5, %1
  %9 = phi i1 [ true, %1 ], [ %7, %5 ]
  ret i1 %9
}

; Function Attrs: inlinehint nounwind sspstrong uwtable
define internal i64 @rb_obj_written(i64 noundef %0, i64 noundef %1, i64 noundef %2, ptr noundef %3, i32 noundef %4) #2 {
  %6 = alloca i64, align 8
  %7 = alloca i64, align 8
  %8 = alloca i64, align 8
  %9 = alloca ptr, align 8
  %10 = alloca i32, align 4
  store i64 %0, ptr %6, align 8, !tbaa !11
  store i64 %1, ptr %7, align 8, !tbaa !11
  store i64 %2, ptr %8, align 8, !tbaa !11
  store ptr %3, ptr %9, align 8, !tbaa !50
  store i32 %4, ptr %10, align 4, !tbaa !7
  %11 = load i64, ptr %8, align 8, !tbaa !11
  %12 = call zeroext i1 @RB_SPECIAL_CONST_P(i64 noundef %11) #27
  br i1 %12, label %16, label %13

13:                                               ; preds = %5
  %14 = load i64, ptr %6, align 8, !tbaa !11
  %15 = load i64, ptr %8, align 8, !tbaa !11
  call void @rb_gc_writebarrier(i64 noundef %14, i64 noundef %15)
  br label %16

16:                                               ; preds = %13, %5
  %17 = load i64, ptr %6, align 8, !tbaa !11
  ret i64 %17
}

; Function Attrs: inlinehint nounwind sspstrong uwtable
define internal i64 @rb_obj_write(i64 noundef %0, ptr noundef %1, i64 noundef %2, ptr noundef %3, i32 noundef %4) #2 {
  %6 = alloca i64, align 8
  %7 = alloca ptr, align 8
  %8 = alloca i64, align 8
  %9 = alloca ptr, align 8
  %10 = alloca i32, align 4
  store i64 %0, ptr %6, align 8, !tbaa !11
  store ptr %1, ptr %7, align 8, !tbaa !36
  store i64 %2, ptr %8, align 8, !tbaa !11
  store ptr %3, ptr %9, align 8, !tbaa !50
  store i32 %4, ptr %10, align 4, !tbaa !7
  %11 = load i64, ptr %8, align 8, !tbaa !11
  %12 = load ptr, ptr %7, align 8, !tbaa !36
  store i64 %11, ptr %12, align 8, !tbaa !11
  %13 = load i64, ptr %6, align 8, !tbaa !11
  %14 = load i64, ptr %8, align 8, !tbaa !11
  %15 = load ptr, ptr %9, align 8, !tbaa !50
  %16 = load i32, ptr %10, align 4, !tbaa !7
  %17 = call i64 @rb_obj_written(i64 noundef %13, i64 noundef 36, i64 noundef %14, ptr noundef %15, i32 noundef %16)
  %18 = load i64, ptr %6, align 8, !tbaa !11
  ret i64 %18
}

; Function Attrs: nounwind sspstrong uwtable
define internal i64 @rb_mod_initialize_exec(i64 noundef %0) #0 {
  %2 = alloca i64, align 8
  store i64 %0, ptr %2, align 8, !tbaa !11
  %3 = call i32 @rb_block_given_p()
  %4 = icmp ne i32 %3, 0
  br i1 %4, label %5, label %8

5:                                                ; preds = %1
  %6 = load i64, ptr %2, align 8, !tbaa !11
  %7 = call i64 @rb_mod_module_exec(i32 noundef 1, ptr noundef %2, i64 noundef %6)
  br label %8

8:                                                ; preds = %5, %1
  ret i64 4
}

; Function Attrs: inlinehint nounwind sspstrong uwtable
define internal i64 @RCLASS_SET_SUPER(i64 noundef %0, i64 noundef %1) #2 {
  %3 = alloca i64, align 8
  %4 = alloca i64, align 8
  store i64 %0, ptr %3, align 8, !tbaa !11
  store i64 %1, ptr %4, align 8, !tbaa !11
  %5 = load i64, ptr %4, align 8, !tbaa !11
  %6 = icmp ne i64 %5, 0
  br i1 %6, label %7, label %11

7:                                                ; preds = %2
  %8 = load i64, ptr %3, align 8, !tbaa !11
  call void @rb_class_remove_from_super_subclasses(i64 noundef %8)
  %9 = load i64, ptr %4, align 8, !tbaa !11
  %10 = load i64, ptr %3, align 8, !tbaa !11
  call void @rb_class_subclass_add(i64 noundef %9, i64 noundef %10)
  br label %11

11:                                               ; preds = %7, %2
  %12 = load i64, ptr %3, align 8, !tbaa !11
  %13 = load i64, ptr %3, align 8, !tbaa !11
  %14 = inttoptr i64 %13 to ptr
  %15 = getelementptr inbounds nuw %struct.RClass, ptr %14, i32 0, i32 1
  %16 = load i64, ptr %4, align 8, !tbaa !11
  %17 = call i64 @rb_obj_write(i64 noundef %12, ptr noundef %15, i64 noundef %16, ptr noundef @.str.177, i32 noundef 259)
  %18 = load i64, ptr %3, align 8, !tbaa !11
  call void @rb_class_update_superclasses(i64 noundef %18)
  %19 = load i64, ptr %4, align 8, !tbaa !11
  ret i64 %19
}

; Function Attrs: inlinehint nounwind sspstrong uwtable
define internal i32 @rb_check_arity(i32 noundef %0, i32 noundef %1, i32 noundef %2) #2 {
  %4 = alloca i32, align 4
  %5 = alloca i32, align 4
  %6 = alloca i32, align 4
  store i32 %0, ptr %4, align 4, !tbaa !7
  store i32 %1, ptr %5, align 4, !tbaa !7
  store i32 %2, ptr %6, align 4, !tbaa !7
  %7 = load i32, ptr %4, align 4, !tbaa !7
  %8 = load i32, ptr %5, align 4, !tbaa !7
  %9 = icmp slt i32 %7, %8
  br i1 %9, label %17, label %10

10:                                               ; preds = %3
  %11 = load i32, ptr %6, align 4, !tbaa !7
  %12 = icmp ne i32 %11, -1
  br i1 %12, label %13, label %21

13:                                               ; preds = %10
  %14 = load i32, ptr %4, align 4, !tbaa !7
  %15 = load i32, ptr %6, align 4, !tbaa !7
  %16 = icmp sgt i32 %14, %15
  br i1 %16, label %17, label %21

17:                                               ; preds = %13, %3
  %18 = load i32, ptr %4, align 4, !tbaa !7
  %19 = load i32, ptr %5, align 4, !tbaa !7
  %20 = load i32, ptr %6, align 4, !tbaa !7
  call void @rb_error_arity(i32 noundef %18, i32 noundef %19, i32 noundef %20) #31
  unreachable

21:                                               ; preds = %13, %10
  %22 = load i32, ptr %4, align 4, !tbaa !7
  ret i32 %22
}

; Function Attrs: inlinehint nounwind sspstrong uwtable
define internal i64 @RCLASS_SUPER(i64 noundef %0) #2 {
  %2 = alloca i64, align 8
  store i64 %0, ptr %2, align 8, !tbaa !11
  %3 = load i64, ptr %2, align 8, !tbaa !11
  %4 = inttoptr i64 %3 to ptr
  %5 = getelementptr inbounds nuw %struct.RClass, ptr %4, i32 0, i32 1
  %6 = load i64, ptr %5, align 8, !tbaa !31
  ret i64 %6
}

; Function Attrs: nounwind sspstrong uwtable
define internal i64 @rb_class_initialize(i32 noundef %0, ptr noundef %1, i64 noundef %2) #0 {
  %4 = alloca i32, align 4
  %5 = alloca ptr, align 8
  %6 = alloca i64, align 8
  %7 = alloca i64, align 8
  store i32 %0, ptr %4, align 4, !tbaa !7
  store ptr %1, ptr %5, align 8, !tbaa !36
  store i64 %2, ptr %6, align 8, !tbaa !11
  call void @llvm.lifetime.start.p0(i64 8, ptr %7) #28
  %8 = load i64, ptr %6, align 8, !tbaa !11
  %9 = call i64 @RCLASS_SUPER(i64 noundef %8)
  %10 = icmp ne i64 %9, 0
  br i1 %10, label %15, label %11

11:                                               ; preds = %3
  %12 = load i64, ptr %6, align 8, !tbaa !11
  %13 = load i64, ptr @rb_cBasicObject, align 8, !tbaa !11
  %14 = icmp eq i64 %12, %13
  br i1 %14, label %15, label %17

15:                                               ; preds = %11, %3
  %16 = load i64, ptr @rb_eTypeError, align 8, !tbaa !11
  call void (i64, ptr, ...) @rb_raise(i64 noundef %16, ptr noundef @.str.175) #31
  unreachable

17:                                               ; preds = %11
  %18 = load i32, ptr %4, align 4, !tbaa !7
  %19 = call i32 @rb_check_arity(i32 noundef %18, i32 noundef 0, i32 noundef 1)
  %20 = icmp eq i32 %19, 0
  br i1 %20, label %21, label %23

21:                                               ; preds = %17
  %22 = load i64, ptr @rb_cObject, align 8, !tbaa !11
  store i64 %22, ptr %7, align 8, !tbaa !11
  br label %38

23:                                               ; preds = %17
  %24 = load ptr, ptr %5, align 8, !tbaa !36
  %25 = getelementptr i64, ptr %24, i64 0
  %26 = load i64, ptr %25, align 8, !tbaa !11
  store i64 %26, ptr %7, align 8, !tbaa !11
  %27 = load i64, ptr %7, align 8, !tbaa !11
  call void @rb_check_inheritable(i64 noundef %27)
  %28 = load i64, ptr %7, align 8, !tbaa !11
  %29 = load i64, ptr @rb_cBasicObject, align 8, !tbaa !11
  %30 = icmp ne i64 %28, %29
  br i1 %30, label %31, label %37

31:                                               ; preds = %23
  %32 = load i64, ptr %7, align 8, !tbaa !11
  %33 = call i64 @RCLASS_SUPER(i64 noundef %32)
  %34 = icmp ne i64 %33, 0
  br i1 %34, label %37, label %35

35:                                               ; preds = %31
  %36 = load i64, ptr @rb_eTypeError, align 8, !tbaa !11
  call void (i64, ptr, ...) @rb_raise(i64 noundef %36, ptr noundef @.str.176) #31
  unreachable

37:                                               ; preds = %31, %23
  br label %38

38:                                               ; preds = %37, %21
  %39 = load i64, ptr %6, align 8, !tbaa !11
  %40 = load i64, ptr %7, align 8, !tbaa !11
  %41 = call i64 @RCLASS_SET_SUPER(i64 noundef %39, i64 noundef %40)
  %42 = load i64, ptr %6, align 8, !tbaa !11
  %43 = load i64, ptr %7, align 8, !tbaa !11
  %44 = inttoptr i64 %43 to ptr
  %45 = getelementptr inbounds nuw %struct.RBasic, ptr %44, i32 0, i32 1
  %46 = load i64, ptr %45, align 8, !tbaa !111
  %47 = call i64 @rb_make_metaclass(i64 noundef %42, i64 noundef %46)
  %48 = load i64, ptr %7, align 8, !tbaa !11
  %49 = load i64, ptr %6, align 8, !tbaa !11
  %50 = call i64 @rb_class_inherited(i64 noundef %48, i64 noundef %49)
  %51 = load i64, ptr %6, align 8, !tbaa !11
  %52 = call i64 @rb_mod_initialize_exec(i64 noundef %51)
  %53 = load i64, ptr %6, align 8, !tbaa !11
  call void @llvm.lifetime.end.p0(i64 8, ptr %7) #28
  ret i64 %53
}