; Function Attrs: nounwind sspstrong uwtable
define internal noundef i64 @rb_class_initialize(i32 noundef %0, ptr noundef readonly captures(none) %1, i64 noundef returned %2) #2 {
  %4 = alloca i64, align 8
  %5 = inttoptr i64 %2 to ptr
  %6 = getelementptr inbounds nuw i8, ptr %5, i64 16
  %7 = load i64, ptr %6, align 8, !tbaa !25
  %.not = icmp ne i64 %7, 0
  %8 = load i64, ptr @rb_cBasicObject, align 8
  %9 = icmp eq i64 %2, %8
  %or.cond = select i1 %.not, i1 true, i1 %9
  br i1 %or.cond, label %10, label %12

10:                                               ; preds = %3
  %11 = load i64, ptr @rb_eTypeError, align 8, !tbaa !7
  tail call void (i64, ptr, ...) @rb_raise(i64 noundef %11, ptr noundef nonnull @.str.175) #24
  unreachable

12:                                               ; preds = %3
  %or.cond.i = icmp ugt i32 %0, 1
  br i1 %or.cond.i, label %13, label %rb_check_arity.exit

13:                                               ; preds = %12
  tail call void @rb_error_arity(i32 noundef %0, i32 noundef 0, i32 noundef 1) #24
  unreachable

rb_check_arity.exit:                              ; preds = %12
  %14 = icmp eq i32 %0, 0
  br i1 %14, label %15, label %17

15:                                               ; preds = %rb_check_arity.exit
  %16 = load i64, ptr @rb_cObject, align 8, !tbaa !7
  br label %26

17:                                               ; preds = %rb_check_arity.exit
  %18 = load i64, ptr %1, align 8, !tbaa !7
  tail call void @rb_check_inheritable(i64 noundef %18) #23
  %19 = load i64, ptr @rb_cBasicObject, align 8, !tbaa !7
  %.not16 = icmp eq i64 %18, %19
  br i1 %.not16, label %26, label %20

20:                                               ; preds = %17
  %21 = inttoptr i64 %18 to ptr
  %22 = getelementptr inbounds nuw i8, ptr %21, i64 16
  %23 = load i64, ptr %22, align 8, !tbaa !25
  %.not17 = icmp eq i64 %23, 0
  br i1 %.not17, label %24, label %26

24:                                               ; preds = %20
  %25 = load i64, ptr @rb_eTypeError, align 8, !tbaa !7
  tail call void (i64, ptr, ...) @rb_raise(i64 noundef %25, ptr noundef nonnull @.str.176) #24
  unreachable

26:                                               ; preds = %17, %20, %15
  %.0 = phi i64 [ %16, %15 ], [ %18, %20 ], [ %18, %17 ]
  %.not.i = icmp eq i64 %.0, 0
  br i1 %.not.i, label %.split.i, label %.split10.i

.split.i:                                         ; preds = %26
  store i64 0, ptr %6, align 8, !tbaa !7
  br label %RCLASS_SET_SUPER.exit

.split10.i:                                       ; preds = %26
  tail call void @rb_class_remove_from_super_subclasses(i64 noundef %2) #23
  tail call void @rb_class_subclass_add(i64 noundef %.0, i64 noundef %2) #23
  store i64 %.0, ptr %6, align 8, !tbaa !7
  %27 = and i64 %.0, 7
  %.not11.i = icmp eq i64 %27, 0
  br i1 %.not11.i, label %28, label %RCLASS_SET_SUPER.exit

28:                                               ; preds = %.split10.i
  tail call void @rb_gc_writebarrier(i64 noundef %2, i64 noundef %.0) #23
  br label %RCLASS_SET_SUPER.exit

RCLASS_SET_SUPER.exit:                            ; preds = %.split.i, %.split10.i, %28
  tail call void @rb_class_update_superclasses(i64 noundef %2) #23
  %29 = inttoptr i64 %.0 to ptr
  %30 = getelementptr inbounds nuw i8, ptr %29, i64 8
  %31 = load i64, ptr %30, align 8, !tbaa !95
  %32 = tail call i64 @rb_make_metaclass(i64 noundef %2, i64 noundef %31) #23
  %33 = tail call i64 @rb_class_inherited(i64 noundef %.0, i64 noundef %2) #23
  call void @llvm.lifetime.start.p0(i64 8, ptr nonnull %4)
  store i64 %2, ptr %4, align 8, !tbaa !7
  %34 = tail call i32 @rb_block_given_p() #23
  %.not.i19 = icmp eq i32 %34, 0
  br i1 %.not.i19, label %rb_mod_initialize_exec.exit, label %35

35:                                               ; preds = %RCLASS_SET_SUPER.exit
  %36 = call i64 @rb_mod_module_exec(i32 noundef 1, ptr noundef nonnull %4, i64 noundef %2) #23
  br label %rb_mod_initialize_exec.exit

rb_mod_initialize_exec.exit:                      ; preds = %RCLASS_SET_SUPER.exit, %35
  call void @llvm.lifetime.end.p0(i64 8, ptr nonnull %4)
  ret i64 %2
}